; Function Attrs: nounwind uwtable
define ptr @l_Lake_Toml_mkSimpleTable_insert(ptr noundef %0, ptr noundef %1, ptr noundef %2, ptr noundef %3, ptr noundef %4) local_unnamed_addr #2 {
  %6 = ptrtoint ptr %3 to i64
  %7 = and i64 %6, 1
  %.not.i23 = icmp eq i64 %7, 0
  br i1 %.not.i23, label %11, label %8

8:                                                ; preds = %5
  %9 = lshr i64 %6, 1
  %10 = trunc i64 %9 to i32
  br label %lean_obj_tag.exit

11:                                               ; preds = %5
  %12 = getelementptr i8, ptr %3, i64 4
  %.val.i = load i32, ptr %12, align 4
  %13 = lshr i32 %.val.i, 24
  br label %lean_obj_tag.exit

lean_obj_tag.exit:                                ; preds = %8, %11
  %.0.i = phi i32 [ %10, %8 ], [ %13, %11 ]
  %14 = icmp eq i32 %.0.i, 0
  br i1 %14, label %15, label %26

15:                                               ; preds = %lean_obj_tag.exit
  %16 = ptrtoint ptr %1 to i64
  %17 = and i64 %16, 1
  %.not31 = icmp eq i64 %17, 0
  br i1 %.not31, label %18, label %lean_dec.exit19

18:                                               ; preds = %15
  %19 = load i32, ptr %1, align 4, !tbaa !4
  %20 = icmp sgt i32 %19, 1
  br i1 %20, label %21, label %23, !prof !11

21:                                               ; preds = %18
  %22 = add nsw i32 %19, -1
  store i32 %22, ptr %1, align 4, !tbaa !4
  br label %lean_dec.exit19

23:                                               ; preds = %18
  %.not.i = icmp eq i32 %19, 0
  br i1 %.not.i, label %lean_dec.exit19, label %24

24:                                               ; preds = %23
  tail call void @lean_dec_ref_cold(ptr noundef nonnull %1) #8
  br label %lean_dec.exit19

lean_dec.exit19:                                  ; preds = %24, %23, %21, %15
  %25 = tail call ptr @l_Lake_Toml_RBDict_alter___at_Lake_Toml_mkSimpleTable_insert___spec__1(ptr noundef %4, ptr noundef %2, ptr noundef %0)
  br label %55

26:                                               ; preds = %lean_obj_tag.exit
  %27 = getelementptr inbounds nuw i8, ptr %3, i64 8
  %28 = load ptr, ptr %27, align 8, !tbaa !9
  %29 = ptrtoint ptr %28 to i64
  %30 = and i64 %29, 1
  %.not = icmp eq i64 %30, 0
  br i1 %.not, label %31, label %lean_inc.exit20

31:                                               ; preds = %26
  %.val.i24 = load i32, ptr %28, align 4, !tbaa !4
  %32 = icmp sgt i32 %.val.i24, 0
  br i1 %32, label %33, label %35, !prof !11

33:                                               ; preds = %31
  %34 = add nuw i32 %.val.i24, 1
  store i32 %34, ptr %28, align 4, !tbaa !4
  br label %lean_inc.exit20

35:                                               ; preds = %31
  %.not.i25 = icmp eq i32 %.val.i24, 0
  br i1 %.not.i25, label %lean_inc.exit20, label %36

36:                                               ; preds = %35
  tail call void @lean_inc_ref_cold(ptr noundef nonnull %28) #8
  br label %lean_inc.exit20

lean_inc.exit20:                                  ; preds = %36, %35, %33, %26
  %37 = getelementptr inbounds nuw i8, ptr %3, i64 16
  %38 = load ptr, ptr %37, align 8, !tbaa !9
  %39 = ptrtoint ptr %38 to i64
  %40 = and i64 %39, 1
  %.not29 = icmp eq i64 %40, 0
  br i1 %.not29, label %41, label %lean_inc.exit

41:                                               ; preds = %lean_inc.exit20
  %.val.i26 = load i32, ptr %38, align 4, !tbaa !4
  %42 = icmp sgt i32 %.val.i26, 0
  br i1 %42, label %43, label %45, !prof !11

43:                                               ; preds = %41
  %44 = add nuw i32 %.val.i26, 1
  store i32 %44, ptr %38, align 4, !tbaa !4
  br label %lean_inc.exit

45:                                               ; preds = %41
  %.not.i27 = icmp eq i32 %.val.i26, 0
  br i1 %.not.i27, label %lean_inc.exit, label %46

46:                                               ; preds = %45
  tail call void @lean_inc_ref_cold(ptr noundef nonnull %38) #8
  br label %lean_inc.exit

lean_inc.exit:                                    ; preds = %46, %45, %43, %lean_inc.exit20
  br i1 %.not.i23, label %47, label %lean_dec.exit

47:                                               ; preds = %lean_inc.exit
  %48 = load i32, ptr %3, align 4, !tbaa !4
  %49 = icmp sgt i32 %48, 1
  br i1 %49, label %50, label %52, !prof !11

50:                                               ; preds = %47
  %51 = add nsw i32 %48, -1
  store i32 %51, ptr %3, align 4, !tbaa !4
  br label %lean_dec.exit

52:                                               ; preds = %47
  %.not.i21 = icmp eq i32 %48, 0
  br i1 %.not.i21, label %lean_dec.exit, label %53

53:                                               ; preds = %52
  tail call void @lean_dec_ref_cold(ptr noundef nonnull %3) #8
  br label %lean_dec.exit

lean_dec.exit:                                    ; preds = %53, %52, %50, %lean_inc.exit
  %54 = tail call ptr @l_Lake_Toml_RBDict_alter___at_Lake_Toml_mkSimpleTable_insert___spec__2(ptr noundef %1, ptr noundef %4, ptr noundef %28, ptr noundef %38, ptr noundef %2, ptr noundef %0)
  br label %55

55:                                               ; preds = %lean_dec.exit, %lean_dec.exit19
  %.0 = phi ptr [ %25, %lean_dec.exit19 ], [ %54, %lean_dec.exit ]
  ret ptr %.0
}